; Function Attrs: mustprogress nofree norecurse nosync nounwind memory(argmem: readwrite) uwtable
define hidden void @_ZN2cv8accW_32fEPKfPfPKhiid(ptr noundef readonly captures(none) %0, ptr noundef captures(none) %1, ptr noundef readonly %2, i32 noundef %3, i32 noundef %4, double noundef %5) local_unnamed_addr #0 {
  %7 = fptrunc double %5 to float
  %8 = fsub float 1.000000e+00, %7
  %.not.i.i = icmp eq ptr %2, null
  br i1 %.not.i.i, label %9, label %18

9:                                                ; preds = %6
  %10 = mul nsw i32 %4, %3
  %11 = icmp sgt i32 %10, 0
  br i1 %11, label %.lr.ph.preheader.i.i, label %_ZN2cv12cpu_baseline10accW_simd_EPKfPfPKhiid.exit

.lr.ph.preheader.i.i:                             ; preds = %9
  %wide.trip.count66.i.i = zext nneg i32 %10 to i64
  br label %.lr.ph.i.i

.lr.ph.i.i:                                       ; preds = %.lr.ph.i.i, %.lr.ph.preheader.i.i
  %indvars.iv63.i.i = phi i64 [ 0, %.lr.ph.preheader.i.i ], [ %indvars.iv.next64.i.i, %.lr.ph.i.i ]
  %12 = getelementptr inbounds nuw float, ptr %0, i64 %indvars.iv63.i.i
  %13 = load float, ptr %12, align 4, !tbaa !6
  %14 = getelementptr inbounds nuw float, ptr %1, i64 %indvars.iv63.i.i
  %15 = load float, ptr %14, align 4, !tbaa !6
  %16 = fmul float %8, %15
  %17 = tail call float @llvm.fmuladd.f32(float %13, float %7, float %16)
  store float %17, ptr %14, align 4, !tbaa !6
  %indvars.iv.next64.i.i = add nuw nsw i64 %indvars.iv63.i.i, 1
  %exitcond67.not.i.i = icmp eq i64 %indvars.iv.next64.i.i, %wide.trip.count66.i.i
  br i1 %exitcond67.not.i.i, label %_ZN2cv12cpu_baseline10accW_simd_EPKfPfPKhiid.exit, label %.lr.ph.i.i, !llvm.loop !82

18:                                               ; preds = %6
  %19 = icmp sgt i32 %3, 0
  br i1 %19, label %.lr.ph53.i.i, label %_ZN2cv12cpu_baseline10accW_simd_EPKfPfPKhiid.exit

.lr.ph53.i.i:                                     ; preds = %18
  %20 = icmp sgt i32 %4, 0
  %21 = sext i32 %4 to i64
  br i1 %20, label %.lr.ph53.split.us.preheader.i.i, label %_ZN2cv12cpu_baseline10accW_simd_EPKfPfPKhiid.exit

.lr.ph53.split.us.preheader.i.i:                  ; preds = %.lr.ph53.i.i
  %wide.trip.count61.i.i = zext nneg i32 %3 to i64
  %wide.trip.count.i.i = zext nneg i32 %4 to i64
  br label %.lr.ph53.split.us.i.i

.lr.ph53.split.us.i.i:                            ; preds = %..loopexit47_crit_edge.us.i.i, %.lr.ph53.split.us.preheader.i.i
  %indvars.iv58.i.i = phi i64 [ 0, %.lr.ph53.split.us.preheader.i.i ], [ %indvars.iv.next59.i.i, %..loopexit47_crit_edge.us.i.i ]
  %.04351.us.i.i = phi ptr [ %0, %.lr.ph53.split.us.preheader.i.i ], [ %30, %..loopexit47_crit_edge.us.i.i ]
  %.04450.us.i.i = phi ptr [ %1, %.lr.ph53.split.us.preheader.i.i ], [ %31, %..loopexit47_crit_edge.us.i.i ]
  %22 = getelementptr inbounds nuw i8, ptr %2, i64 %indvars.iv58.i.i
  %23 = load i8, ptr %22, align 1, !tbaa !3
  %.not46.us.i.i = icmp eq i8 %23, 0
  br i1 %.not46.us.i.i, label %..loopexit47_crit_edge.us.i.i, label %.preheader.us.i.i

.preheader.us.i.i:                                ; preds = %.lr.ph53.split.us.i.i, %.preheader.us.i.i
  %indvars.iv.i.i = phi i64 [ %indvars.iv.next.i.i, %.preheader.us.i.i ], [ 0, %.lr.ph53.split.us.i.i ]
  %24 = getelementptr inbounds nuw float, ptr %.04351.us.i.i, i64 %indvars.iv.i.i
  %25 = load float, ptr %24, align 4, !tbaa !6
  %26 = getelementptr inbounds nuw float, ptr %.04450.us.i.i, i64 %indvars.iv.i.i
  %27 = load float, ptr %26, align 4, !tbaa !6
  %28 = fmul float %8, %27
  %29 = tail call float @llvm.fmuladd.f32(float %25, float %7, float %28)
  store float %29, ptr %26, align 4, !tbaa !6
  %indvars.iv.next.i.i = add nuw nsw i64 %indvars.iv.i.i, 1
  %exitcond.not.i.i = icmp eq i64 %indvars.iv.next.i.i, %wide.trip.count.i.i
  br i1 %exitcond.not.i.i, label %..loopexit47_crit_edge.us.i.i, label %.preheader.us.i.i, !llvm.loop !83

..loopexit47_crit_edge.us.i.i:                    ; preds = %.preheader.us.i.i, %.lr.ph53.split.us.i.i
  %indvars.iv.next59.i.i = add nuw nsw i64 %indvars.iv58.i.i, 1
  %30 = getelementptr inbounds nuw float, ptr %.04351.us.i.i, i64 %21
  %31 = getelementptr inbounds nuw float, ptr %.04450.us.i.i, i64 %21
  %exitcond62.not.i.i = icmp eq i64 %indvars.iv.next59.i.i, %wide.trip.count61.i.i
  br i1 %exitcond62.not.i.i, label %_ZN2cv12cpu_baseline10accW_simd_EPKfPfPKhiid.exit, label %.lr.ph53.split.us.i.i, !llvm.loop !84

_ZN2cv12cpu_baseline10accW_simd_EPKfPfPKhiid.exit: ; preds = %..loopexit47_crit_edge.us.i.i, %.lr.ph.i.i, %9, %18, %.lr.ph53.i.i
  ret void
}